target datalayout = "e-m:e-p270:32:32-p271:32:32-p272:64:64-i64:64-i128:128-f80:128-n8:16:32:64-S128"
target triple = "x86_64-unknown-linux-gnu"

%"struct.node::AssertionInfo" = type { ptr, ptr, ptr }
%"class.v8::IndirectHandleBase" = type { ptr }
%"class.node::MemoryRetainer" = type { ptr }
%"class.v8::Global.17" = type { %"class.v8::PersistentBase.18" }
%"class.v8::PersistentBase.18" = type { %"class.v8::IndirectHandleBase" }
%"class.node::(anonymous namespace)::Parser" = type { %"class.node::AsyncWrap", %"class.node::StreamListener", %struct.llhttp__internal_s, [32 x %"struct.node::(anonymous namespace)::StringPtr"], [32 x %"struct.node::(anonymous namespace)::StringPtr"], %"struct.node::(anonymous namespace)::StringPtr", %"struct.node::(anonymous namespace)::StringPtr", i64, i64, i8, i8, i64, ptr, i8, i8, i64, i64, i64, ptr, %"class.node::BaseObjectPtrImpl.328" }
%"class.node::AsyncWrap" = type { %"class.node::BaseObject", i32, i8, double, double }
%"class.node::BaseObject" = type { %"class.node::MemoryRetainer", %"class.v8::Global.17", ptr, ptr }
%"class.node::StreamListener" = type { ptr, ptr, ptr }
%struct.llhttp__internal_s = type { i32, ptr, ptr, i32, ptr, ptr, ptr, ptr, i64, i8, i8, i8, i8, i8, i16, i8, i8, i16, i16, i8, ptr }
%"struct.node::(anonymous namespace)::StringPtr" = type { ptr, i8, i64 }
%"class.node::BaseObjectPtrImpl.328" = type { %union.anon.329 }
%union.anon.329 = type { ptr }
%"class.node::(anonymous namespace)::BindingData" = type <{ %"class.node::BaseObject", %"class.std::vector.291", i8, [7 x i8] }>
%"class.std::vector.291" = type { %"struct.std::_Vector_base.292" }
%"struct.std::_Vector_base.292" = type { %"struct.std::_Vector_base<char, std::allocator<char>>::_Vector_impl" }
%"struct.std::_Vector_base<char, std::allocator<char>>::_Vector_impl" = type { %"struct.std::_Vector_base<char, std::allocator<char>>::_Vector_impl_data" }
%"struct.std::_Vector_base<char, std::allocator<char>>::_Vector_impl_data" = type { ptr, ptr, ptr }
%"class.__gnu_cxx::__normal_iterator" = type { ptr }
%struct.uv_buf_t = type { ptr, i64 }

@_ZZN4node6MallocIcEEPT_mE4args = linkonce_odr dso_local constant %"struct.node::AssertionInfo" { ptr @.str.92, ptr @.str.93, ptr @.str.94 }, comdat, align 8
@_ZZN4node25MultiplyWithOverflowCheckImEET_S1_S1_E4args = linkonce_odr dso_local constant %"struct.node::AssertionInfo" { ptr @.str.95, ptr @.str.96, ptr @.str.97 }, comdat, align 8

; Function Attrs: mustprogress nounwind uwtable
define linkonce_odr dso_local noundef i64 @_ZN4node25MultiplyWithOverflowCheckImEET_S1_S1_(i64 noundef %a, i64 noundef %b) #4 comdat {
entry:
  %a.addr = alloca i64, align 8
  %b.addr = alloca i64, align 8
  %ret = alloca i64, align 8
  store i64 %a, ptr %a.addr, align 8
  store i64 %b, ptr %b.addr, align 8
  %0 = load i64, ptr %a.addr, align 8
  %1 = load i64, ptr %b.addr, align 8
  %mul = mul i64 %0, %1
  store i64 %mul, ptr %ret, align 8
  %2 = load i64, ptr %a.addr, align 8
  %cmp = icmp ne i64 %2, 0
  br i1 %cmp, label %if.then, label %if.end7

if.then:                                          ; preds = %entry
  br label %do.body

do.body:                                          ; preds = %if.then
  %3 = load i64, ptr %b.addr, align 8
  %4 = load i64, ptr %ret, align 8
  %5 = load i64, ptr %a.addr, align 8
  %div = udiv i64 %4, %5
  %cmp1 = icmp eq i64 %3, %div
  %lnot = xor i1 %cmp1, true
  %lnot2 = xor i1 %lnot, true
  %lnot3 = xor i1 %lnot2, true
  br i1 %lnot3, label %if.then4, label %if.end

if.then4:                                         ; preds = %do.body
  br label %do.body5

do.body5:                                         ; preds = %if.then4
  call void @_ZN4node6AssertERKNS_13AssertionInfoE(ptr noundef nonnull align 8 dereferenceable(24) @_ZZN4node25MultiplyWithOverflowCheckImEET_S1_S1_E4args)
  call void @abort() #14
  unreachable

do.end:                                           ; No predecessors!
  br label %if.end

if.end:                                           ; preds = %do.end, %do.body
  br label %do.end6

do.end6:                                          ; preds = %if.end
  br label %if.end7

if.end7:                                          ; preds = %do.end6, %entry
  %6 = load i64, ptr %ret, align 8
  ret i64 %6
}

; Function Attrs: mustprogress nounwind uwtable
define linkonce_odr dso_local noundef ptr @_ZN4node16UncheckedReallocIcEEPT_S2_m(ptr noundef %pointer, i64 noundef %n) #4 comdat {
entry:
  %retval = alloca ptr, align 8
  %pointer.addr = alloca ptr, align 8
  %n.addr = alloca i64, align 8
  %full_size = alloca i64, align 8
  %allocated = alloca ptr, align 8
  store ptr %pointer, ptr %pointer.addr, align 8
  store i64 %n, ptr %n.addr, align 8
  %0 = load i64, ptr %n.addr, align 8
  %call = call noundef i64 @_ZN4node25MultiplyWithOverflowCheckImEET_S1_S1_(i64 noundef 1, i64 noundef %0)
  store i64 %call, ptr %full_size, align 8
  %1 = load i64, ptr %full_size, align 8
  %cmp = icmp eq i64 %1, 0
  br i1 %cmp, label %if.then, label %if.end

if.then:                                          ; preds = %entry
  %2 = load ptr, ptr %pointer.addr, align 8
  call void @free(ptr noundef %2) #3
  store ptr null, ptr %retval, align 8
  br label %return

if.end:                                           ; preds = %entry
  %3 = load ptr, ptr %pointer.addr, align 8
  %4 = load i64, ptr %full_size, align 8
  %call1 = call ptr @realloc(ptr noundef %3, i64 noundef %4) #18
  store ptr %call1, ptr %allocated, align 8
  %5 = load ptr, ptr %allocated, align 8
  %cmp2 = icmp eq ptr %5, null
  %lnot = xor i1 %cmp2, true
  %lnot3 = xor i1 %lnot, true
  br i1 %lnot3, label %if.then4, label %if.end6

if.then4:                                         ; preds = %if.end
  call void @_ZN4node21LowMemoryNotificationEv()
  %6 = load ptr, ptr %pointer.addr, align 8
  %7 = load i64, ptr %full_size, align 8
  %call5 = call ptr @realloc(ptr noundef %6, i64 noundef %7) #18
  store ptr %call5, ptr %allocated, align 8
  br label %if.end6

if.end6:                                          ; preds = %if.then4, %if.end
  %8 = load ptr, ptr %allocated, align 8
  store ptr %8, ptr %retval, align 8
  br label %return

return:                                           ; preds = %if.end6, %if.then
  %9 = load ptr, ptr %retval, align 8
  ret ptr %9
}

; Function Attrs: mustprogress nounwind uwtable
define linkonce_odr dso_local noundef nonnull align 8 dereferenceable(8) ptr @_ZNK9__gnu_cxx17__normal_iteratorIPKcSt6vectorIcSaIcEEE4baseEv(ptr noundef nonnull align 8 dereferenceable(8) %this) #4 comdat align 2 {
entry:
  %this.addr = alloca ptr, align 8
  store ptr %this, ptr %this.addr, align 8
  %this1 = load ptr, ptr %this.addr, align 8
  %_M_current = getelementptr inbounds %"class.__gnu_cxx::__normal_iterator", ptr %this1, i32 0, i32 0
  ret ptr %_M_current
}

; Function Attrs: mustprogress nounwind uwtable
define linkonce_odr dso_local void @_ZN9__gnu_cxx17__normal_iteratorIPKcSt6vectorIcSaIcEEEC2ERKS2_(ptr noundef nonnull align 8 dereferenceable(8) %this, ptr noundef nonnull align 8 dereferenceable(8) %__i) unnamed_addr #4 comdat align 2 {
entry:
  %this.addr = alloca ptr, align 8
  %__i.addr = alloca ptr, align 8
  store ptr %this, ptr %this.addr, align 8
  store ptr %__i, ptr %__i.addr, align 8
  %this1 = load ptr, ptr %this.addr, align 8
  %_M_current = getelementptr inbounds %"class.__gnu_cxx::__normal_iterator", ptr %this1, i32 0, i32 0
  %0 = load ptr, ptr %__i.addr, align 8
  %1 = load ptr, ptr %0, align 8
  store ptr %1, ptr %_M_current, align 8
  ret void
}

; Function Attrs: mustprogress nounwind uwtable
define linkonce_odr dso_local noundef ptr @_ZN4node15UncheckedMallocIcEEPT_m(i64 noundef %n) #4 comdat {
entry:
  %n.addr = alloca i64, align 8
  store i64 %n, ptr %n.addr, align 8
  %0 = load i64, ptr %n.addr, align 8
  %call = call noundef ptr @_ZN4node16UncheckedReallocIcEEPT_S2_m(ptr noundef null, i64 noundef %0)
  ret ptr %call
}

; Function Attrs: mustprogress nounwind uwtable
define internal noundef ptr @_ZNK4node17BaseObjectPtrImplINS_12_GLOBAL__N_111BindingDataELb0EE15get_base_objectEv(ptr noundef nonnull align 8 dereferenceable(8) %this) #4 align 2 {
entry:
  %this.addr = alloca ptr, align 8
  store ptr %this, ptr %this.addr, align 8
  %this1 = load ptr, ptr %this.addr, align 8
  %data_ = getelementptr inbounds %"class.node::BaseObjectPtrImpl.328", ptr %this1, i32 0, i32 0
  %0 = load ptr, ptr %data_, align 8
  ret ptr %0
}

; Function Attrs: mustprogress nounwind uwtable
define linkonce_odr dso_local noundef ptr @_ZNKSt6vectorIcSaIcEE11_M_data_ptrIcEEPT_S4_(ptr noundef nonnull align 8 dereferenceable(24) %this, ptr noundef %__ptr) #4 comdat align 2 {
entry:
  %this.addr = alloca ptr, align 8
  %__ptr.addr = alloca ptr, align 8
  store ptr %this, ptr %this.addr, align 8
  store ptr %__ptr, ptr %__ptr.addr, align 8
  %0 = load ptr, ptr %__ptr.addr, align 8
  ret ptr %0
}

; Function Attrs: mustprogress nounwind uwtable
define linkonce_odr dso_local noundef zeroext i1 @_ZN9__gnu_cxxeqIPKcSt6vectorIcSaIcEEEEbRKNS_17__normal_iteratorIT_T0_EESB_(ptr noundef nonnull align 8 dereferenceable(8) %__lhs, ptr noundef nonnull align 8 dereferenceable(8) %__rhs) #4 comdat {
entry:
  %__lhs.addr = alloca ptr, align 8
  %__rhs.addr = alloca ptr, align 8
  store ptr %__lhs, ptr %__lhs.addr, align 8
  store ptr %__rhs, ptr %__rhs.addr, align 8
  %0 = load ptr, ptr %__lhs.addr, align 8
  %call = call noundef nonnull align 8 dereferenceable(8) ptr @_ZNK9__gnu_cxx17__normal_iteratorIPKcSt6vectorIcSaIcEEE4baseEv(ptr noundef nonnull align 8 dereferenceable(8) %0) #3
  %1 = load ptr, ptr %call, align 8
  %2 = load ptr, ptr %__rhs.addr, align 8
  %call1 = call noundef nonnull align 8 dereferenceable(8) ptr @_ZNK9__gnu_cxx17__normal_iteratorIPKcSt6vectorIcSaIcEEE4baseEv(ptr noundef nonnull align 8 dereferenceable(8) %2) #3
  %3 = load ptr, ptr %call1, align 8
  %cmp = icmp eq ptr %1, %3
  ret i1 %cmp
}

; Function Attrs: mustprogress nounwind uwtable
define linkonce_odr dso_local ptr @_ZNKSt6vectorIcSaIcEE3endEv(ptr noundef nonnull align 8 dereferenceable(24) %this) #4 comdat align 2 {
entry:
  %retval = alloca %"class.__gnu_cxx::__normal_iterator", align 8
  %this.addr = alloca ptr, align 8
  store ptr %this, ptr %this.addr, align 8
  %this1 = load ptr, ptr %this.addr, align 8
  %_M_impl = getelementptr inbounds %"struct.std::_Vector_base.292", ptr %this1, i32 0, i32 0
  %_M_finish = getelementptr inbounds %"struct.std::_Vector_base<char, std::allocator<char>>::_Vector_impl_data", ptr %_M_impl, i32 0, i32 1
  call void @_ZN9__gnu_cxx17__normal_iteratorIPKcSt6vectorIcSaIcEEEC2ERKS2_(ptr noundef nonnull align 8 dereferenceable(8) %retval, ptr noundef nonnull align 8 dereferenceable(8) %_M_finish) #3
  %coerce.dive = getelementptr inbounds %"class.__gnu_cxx::__normal_iterator", ptr %retval, i32 0, i32 0
  %0 = load ptr, ptr %coerce.dive, align 8
  ret ptr %0
}

; Function Attrs: mustprogress nounwind uwtable
define linkonce_odr dso_local ptr @_ZNKSt6vectorIcSaIcEE5beginEv(ptr noundef nonnull align 8 dereferenceable(24) %this) #4 comdat align 2 {
entry:
  %retval = alloca %"class.__gnu_cxx::__normal_iterator", align 8
  %this.addr = alloca ptr, align 8
  store ptr %this, ptr %this.addr, align 8
  %this1 = load ptr, ptr %this.addr, align 8
  %_M_impl = getelementptr inbounds %"struct.std::_Vector_base.292", ptr %this1, i32 0, i32 0
  %_M_start = getelementptr inbounds %"struct.std::_Vector_base<char, std::allocator<char>>::_Vector_impl_data", ptr %_M_impl, i32 0, i32 0
  call void @_ZN9__gnu_cxx17__normal_iteratorIPKcSt6vectorIcSaIcEEEC2ERKS2_(ptr noundef nonnull align 8 dereferenceable(8) %retval, ptr noundef nonnull align 8 dereferenceable(8) %_M_start) #3
  %coerce.dive = getelementptr inbounds %"class.__gnu_cxx::__normal_iterator", ptr %retval, i32 0, i32 0
  %0 = load ptr, ptr %coerce.dive, align 8
  ret ptr %0
}

; Function Attrs: mustprogress nounwind uwtable
define linkonce_odr dso_local noundef ptr @_ZN4node6MallocIcEEPT_m(i64 noundef %n) #4 comdat {
entry:
  %n.addr = alloca i64, align 8
  %ret = alloca ptr, align 8
  store i64 %n, ptr %n.addr, align 8
  %0 = load i64, ptr %n.addr, align 8
  %call = call noundef ptr @_ZN4node15UncheckedMallocIcEEPT_m(i64 noundef %0)
  store ptr %call, ptr %ret, align 8
  br label %do.body

do.body:                                          ; preds = %entry
  %1 = load i64, ptr %n.addr, align 8
  %cmp = icmp ugt i64 %1, 0
  br i1 %cmp, label %lor.rhs, label %lor.end

lor.rhs:                                          ; preds = %do.body
  %2 = load ptr, ptr %ret, align 8
  %cmp1 = icmp ne ptr %2, null
  br label %lor.end

lor.end:                                          ; preds = %lor.rhs, %do.body
  %3 = phi i1 [ true, %do.body ], [ %cmp1, %lor.rhs ]
  %lnot = xor i1 %3, true
  %lnot2 = xor i1 %lnot, true
  %lnot3 = xor i1 %lnot2, true
  br i1 %lnot3, label %if.then, label %if.end

if.then:                                          ; preds = %lor.end
  br label %do.body4

do.body4:                                         ; preds = %if.then
  call void @_ZN4node6AssertERKNS_13AssertionInfoE(ptr noundef nonnull align 8 dereferenceable(24) @_ZZN4node6MallocIcEEPT_mE4args)
  call void @abort() #14
  unreachable

do.end:                                           ; No predecessors!
  br label %if.end

if.end:                                           ; preds = %do.end, %lor.end
  br label %do.end5

do.end5:                                          ; preds = %if.end
  %4 = load ptr, ptr %ret, align 8
  ret ptr %4
}

; Function Attrs: mustprogress nounwind uwtable
define internal noundef ptr @_ZNK4node17BaseObjectPtrImplINS_12_GLOBAL__N_111BindingDataELb0EE3getEv(ptr noundef nonnull align 8 dereferenceable(8) %this) #4 align 2 {
entry:
  %this.addr = alloca ptr, align 8
  store ptr %this, ptr %this.addr, align 8
  %this1 = load ptr, ptr %this.addr, align 8
  %call = call noundef ptr @_ZNK4node17BaseObjectPtrImplINS_12_GLOBAL__N_111BindingDataELb0EE15get_base_objectEv(ptr noundef nonnull align 8 dereferenceable(8) %this1)
  ret ptr %call
}

; Function Attrs: mustprogress nounwind uwtable
define linkonce_odr dso_local noundef ptr @_ZNSt6vectorIcSaIcEE4dataEv(ptr noundef nonnull align 8 dereferenceable(24) %this) #4 comdat align 2 {
entry:
  %this.addr = alloca ptr, align 8
  store ptr %this, ptr %this.addr, align 8
  %this1 = load ptr, ptr %this.addr, align 8
  %_M_impl = getelementptr inbounds %"struct.std::_Vector_base.292", ptr %this1, i32 0, i32 0
  %_M_start = getelementptr inbounds %"struct.std::_Vector_base<char, std::allocator<char>>::_Vector_impl_data", ptr %_M_impl, i32 0, i32 0
  %0 = load ptr, ptr %_M_start, align 8
  %call = call noundef ptr @_ZNKSt6vectorIcSaIcEE11_M_data_ptrIcEEPT_S4_(ptr noundef nonnull align 8 dereferenceable(24) %this1, ptr noundef %0) #3
  ret ptr %call
}

; Function Attrs: mustprogress nounwind uwtable
define linkonce_odr dso_local noundef zeroext i1 @_ZNKSt6vectorIcSaIcEE5emptyEv(ptr noundef nonnull align 8 dereferenceable(24) %this) #4 comdat align 2 {
entry:
  %this.addr = alloca ptr, align 8
  %ref.tmp = alloca %"class.__gnu_cxx::__normal_iterator", align 8
  %ref.tmp2 = alloca %"class.__gnu_cxx::__normal_iterator", align 8
  store ptr %this, ptr %this.addr, align 8
  %this1 = load ptr, ptr %this.addr, align 8
  %call = call ptr @_ZNKSt6vectorIcSaIcEE5beginEv(ptr noundef nonnull align 8 dereferenceable(24) %this1) #3
  %coerce.dive = getelementptr inbounds %"class.__gnu_cxx::__normal_iterator", ptr %ref.tmp, i32 0, i32 0
  store ptr %call, ptr %coerce.dive, align 8
  %call3 = call ptr @_ZNKSt6vectorIcSaIcEE3endEv(ptr noundef nonnull align 8 dereferenceable(24) %this1) #3
  %coerce.dive4 = getelementptr inbounds %"class.__gnu_cxx::__normal_iterator", ptr %ref.tmp2, i32 0, i32 0
  store ptr %call3, ptr %coerce.dive4, align 8
  %call5 = call noundef zeroext i1 @_ZN9__gnu_cxxeqIPKcSt6vectorIcSaIcEEEEbRKNS_17__normal_iteratorIT_T0_EESB_(ptr noundef nonnull align 8 dereferenceable(8) %ref.tmp, ptr noundef nonnull align 8 dereferenceable(8) %ref.tmp2) #3
  ret i1 %call5
}

; Function Attrs: mustprogress nounwind uwtable
define linkonce_odr dso_local noundef ptr @_ZN4node6MallocEm(i64 noundef %n) #4 comdat {
entry:
  %n.addr = alloca i64, align 8
  store i64 %n, ptr %n.addr, align 8
  %0 = load i64, ptr %n.addr, align 8
  %call = call noundef ptr @_ZN4node6MallocIcEEPT_m(i64 noundef %0)
  ret ptr %call
}

; Function Attrs: mustprogress nounwind uwtable
define internal noundef ptr @_ZNK4node17BaseObjectPtrImplINS_12_GLOBAL__N_111BindingDataELb0EEptEv(ptr noundef nonnull align 8 dereferenceable(8) %this) #4 align 2 {
entry:
  %this.addr = alloca ptr, align 8
  store ptr %this, ptr %this.addr, align 8
  %this1 = load ptr, ptr %this.addr, align 8
  %call = call noundef ptr @_ZNK4node17BaseObjectPtrImplINS_12_GLOBAL__N_111BindingDataELb0EE3getEv(ptr noundef nonnull align 8 dereferenceable(8) %this1)
  ret ptr %call
}

; Function Attrs: mustprogress nounwind uwtable
define internal { ptr, i64 } @_ZN4node12_GLOBAL__N_16Parser13OnStreamAllocEm(ptr noundef nonnull align 8 dereferenceable(1848) %this, i64 noundef %suggested_size) unnamed_addr #4 align 2 {
entry:
  %retval = alloca %struct.uv_buf_t, align 8
  %this.addr = alloca ptr, align 8
  %suggested_size.addr = alloca i64, align 8
  store ptr %this, ptr %this.addr, align 8
  store i64 %suggested_size, ptr %suggested_size.addr, align 8
  %this1 = load ptr, ptr %this.addr, align 8
  %binding_data_ = getelementptr inbounds %"class.node::(anonymous namespace)::Parser", ptr %this1, i32 0, i32 19
  %call = call noundef ptr @_ZNK4node17BaseObjectPtrImplINS_12_GLOBAL__N_111BindingDataELb0EEptEv(ptr noundef nonnull align 8 dereferenceable(8) %binding_data_)
  %parser_buffer_in_use = getelementptr inbounds %"class.node::(anonymous namespace)::BindingData", ptr %call, i32 0, i32 2
  %0 = load i8, ptr %parser_buffer_in_use, align 8
  %tobool = trunc i8 %0 to i1
  br i1 %tobool, label %if.then, label %if.end

if.then:                                          ; preds = %entry
  %1 = load i64, ptr %suggested_size.addr, align 8
  %call2 = call noundef ptr @_ZN4node6MallocEm(i64 noundef %1)
  %2 = load i64, ptr %suggested_size.addr, align 8
  %conv = trunc i64 %2 to i32
  %call3 = call { ptr, i64 } @uv_buf_init(ptr noundef %call2, i32 noundef %conv)
  %3 = getelementptr inbounds { ptr, i64 }, ptr %retval, i32 0, i32 0
  %4 = extractvalue { ptr, i64 } %call3, 0
  store ptr %4, ptr %3, align 8
  %5 = getelementptr inbounds { ptr, i64 }, ptr %retval, i32 0, i32 1
  %6 = extractvalue { ptr, i64 } %call3, 1
  store i64 %6, ptr %5, align 8
  br label %return

if.end:                                           ; preds = %entry
  %binding_data_4 = getelementptr inbounds %"class.node::(anonymous namespace)::Parser", ptr %this1, i32 0, i32 19
  %call5 = call noundef ptr @_ZNK4node17BaseObjectPtrImplINS_12_GLOBAL__N_111BindingDataELb0EEptEv(ptr noundef nonnull align 8 dereferenceable(8) %binding_data_4)
  %parser_buffer_in_use6 = getelementptr inbounds %"class.node::(anonymous namespace)::BindingData", ptr %call5, i32 0, i32 2
  store i8 1, ptr %parser_buffer_in_use6, align 8
  %binding_data_7 = getelementptr inbounds %"class.node::(anonymous namespace)::Parser", ptr %this1, i32 0, i32 19
  %call8 = call noundef ptr @_ZNK4node17BaseObjectPtrImplINS_12_GLOBAL__N_111BindingDataELb0EEptEv(ptr noundef nonnull align 8 dereferenceable(8) %binding_data_7)
  %parser_buffer = getelementptr inbounds %"class.node::(anonymous namespace)::BindingData", ptr %call8, i32 0, i32 1
  %call9 = call noundef zeroext i1 @_ZNKSt6vectorIcSaIcEE5emptyEv(ptr noundef nonnull align 8 dereferenceable(24) %parser_buffer) #3
  br i1 %call9, label %if.then10, label %if.end14

if.then10:                                        ; preds = %if.end
  %binding_data_11 = getelementptr inbounds %"class.node::(anonymous namespace)::Parser", ptr %this1, i32 0, i32 19
  %call12 = call noundef ptr @_ZNK4node17BaseObjectPtrImplINS_12_GLOBAL__N_111BindingDataELb0EEptEv(ptr noundef nonnull align 8 dereferenceable(8) %binding_data_11)
  %parser_buffer13 = getelementptr inbounds %"class.node::(anonymous namespace)::BindingData", ptr %call12, i32 0, i32 1
  call void @_ZNSt6vectorIcSaIcEE6resizeEm(ptr noundef nonnull align 8 dereferenceable(24) %parser_buffer13, i64 noundef 65536)
  br label %if.end14

if.end14:                                         ; preds = %if.then10, %if.end
  %binding_data_15 = getelementptr inbounds %"class.node::(anonymous namespace)::Parser", ptr %this1, i32 0, i32 19
  %call16 = call noundef ptr @_ZNK4node17BaseObjectPtrImplINS_12_GLOBAL__N_111BindingDataELb0EEptEv(ptr noundef nonnull align 8 dereferenceable(8) %binding_data_15)
  %parser_buffer17 = getelementptr inbounds %"class.node::(anonymous namespace)::BindingData", ptr %call16, i32 0, i32 1
  %call18 = call noundef ptr @_ZNSt6vectorIcSaIcEE4dataEv(ptr noundef nonnull align 8 dereferenceable(24) %parser_buffer17) #3
  %call19 = call { ptr, i64 } @uv_buf_init(ptr noundef %call18, i32 noundef 65536)
  %7 = getelementptr inbounds { ptr, i64 }, ptr %retval, i32 0, i32 0
  %8 = extractvalue { ptr, i64 } %call19, 0
  store ptr %8, ptr %7, align 8
  %9 = getelementptr inbounds { ptr, i64 }, ptr %retval, i32 0, i32 1
  %10 = extractvalue { ptr, i64 } %call19, 1
  store i64 %10, ptr %9, align 8
  br label %return

return:                                           ; preds = %if.end14, %if.then
  %11 = load { ptr, i64 }, ptr %retval, align 8
  ret { ptr, i64 } %11
}