; Function Attrs: mustprogress nounwind uwtable
define internal { ptr, i64 } @_ZN4node12_GLOBAL__N_16Parser13OnStreamAllocEm(ptr nocapture noundef nonnull readonly align 8 dereferenceable(1848) %this, i64 noundef %suggested_size) unnamed_addr #3 align 2 {
entry:
  %binding_data_ = getelementptr inbounds i8, ptr %this, i64 1840
  %binding_data_.val = load ptr, ptr %binding_data_, align 8
  %parser_buffer_in_use = getelementptr inbounds i8, ptr %binding_data_.val, i64 56
  %0 = load i8, ptr %parser_buffer_in_use, align 8
  %1 = and i8 %0, 1
  %tobool.not = icmp eq i8 %1, 0
  br i1 %tobool.not, label %if.end, label %if.then

if.then:                                          ; preds = %entry
  %cmp.i.i.i.i = icmp eq i64 %suggested_size, 0
  br i1 %cmp.i.i.i.i, label %_ZN4node6MallocEm.exit, label %if.end.i.i.i.i

if.end.i.i.i.i:                                   ; preds = %if.then
  %malloc.i.i.i = tail call ptr @malloc(i64 %suggested_size)
  %cmp2.i.i.i.i = icmp eq ptr %malloc.i.i.i, null
  br i1 %cmp2.i.i.i.i, label %_ZN4node15UncheckedMallocIcEEPT_m.exit.i.i, label %_ZN4node6MallocEm.exit

_ZN4node15UncheckedMallocIcEEPT_m.exit.i.i:       ; preds = %if.end.i.i.i.i
  tail call void @_ZN4node21LowMemoryNotificationEv() #20
  %malloc1.i.i.i = tail call ptr @malloc(i64 %suggested_size)
  %cmp1.i.i = icmp eq ptr %malloc1.i.i.i, null
  br i1 %cmp1.i.i, label %do.body4.i.i, label %_ZN4node6MallocEm.exit

do.body4.i.i:                                     ; preds = %_ZN4node15UncheckedMallocIcEEPT_m.exit.i.i
  tail call void @_ZN4node6AssertERKNS_13AssertionInfoE(ptr noundef nonnull align 8 dereferenceable(24) @_ZZN4node6MallocIcEEPT_mE4args) #20
  tail call void @abort() #22
  unreachable

_ZN4node6MallocEm.exit:                           ; preds = %if.then, %if.end.i.i.i.i, %_ZN4node15UncheckedMallocIcEEPT_m.exit.i.i
  %retval.0.i.i7.i.i = phi ptr [ %malloc1.i.i.i, %_ZN4node15UncheckedMallocIcEEPT_m.exit.i.i ], [ null, %if.then ], [ %malloc.i.i.i, %if.end.i.i.i.i ]
  %conv = trunc i64 %suggested_size to i32
  %call3 = tail call { ptr, i64 } @uv_buf_init(ptr noundef %retval.0.i.i7.i.i, i32 noundef %conv) #20
  br label %return

if.end:                                           ; preds = %entry
  store i8 1, ptr %parser_buffer_in_use, align 8
  %binding_data_.val4 = load ptr, ptr %binding_data_, align 8
  %parser_buffer = getelementptr inbounds i8, ptr %binding_data_.val4, i64 32
  %2 = load ptr, ptr %parser_buffer, align 8
  %_M_finish.i.i = getelementptr inbounds i8, ptr %binding_data_.val4, i64 40
  %3 = load ptr, ptr %_M_finish.i.i, align 8
  %cmp.i.i = icmp eq ptr %2, %3
  br i1 %cmp.i.i, label %if.then10, label %if.end14

if.then10:                                        ; preds = %if.end
  tail call void @_ZNSt6vectorIcSaIcEE6resizeEm(ptr noundef nonnull align 8 dereferenceable(24) %parser_buffer, i64 noundef 65536)
  %binding_data_.val6.pre = load ptr, ptr %binding_data_, align 8
  %parser_buffer17.phi.trans.insert = getelementptr inbounds i8, ptr %binding_data_.val6.pre, i64 32
  %.pre = load ptr, ptr %parser_buffer17.phi.trans.insert, align 8
  br label %if.end14

if.end14:                                         ; preds = %if.then10, %if.end
  %4 = phi ptr [ %.pre, %if.then10 ], [ %2, %if.end ]
  %call19 = tail call { ptr, i64 } @uv_buf_init(ptr noundef %4, i32 noundef 65536) #20
  br label %return

return:                                           ; preds = %if.end14, %_ZN4node6MallocEm.exit
  %call3.pn = phi { ptr, i64 } [ %call3, %_ZN4node6MallocEm.exit ], [ %call19, %if.end14 ]
  ret { ptr, i64 } %call3.pn
}